target datalayout = "e-m:e-p270:32:32-p271:32:32-p272:64:64-i64:64-i128:128-f80:128-n8:16:32:64-S128"
target triple = "x86_64-pc-linux-gnu"

%struct.lean_object = type { i32, i32 }
%struct.lean_ctor_object = type { %struct.lean_object, [0 x ptr] }

; Function Attrs: inlinehint nounwind uwtable
define internal ptr @lean_to_ctor(ptr noundef %0) #0 {
  %2 = alloca ptr, align 8
  store ptr %0, ptr %2, align 8, !tbaa !4
  %3 = load ptr, ptr %2, align 8, !tbaa !4
  ret ptr %3
}

; Function Attrs: inlinehint nounwind uwtable
define internal ptr @lean_ctor_obj_cptr(ptr noundef %0) #0 {
  %2 = alloca ptr, align 8
  store ptr %0, ptr %2, align 8, !tbaa !4
  %3 = load ptr, ptr %2, align 8, !tbaa !4
  %4 = call ptr @lean_to_ctor(ptr noundef %3)
  %5 = getelementptr inbounds nuw %struct.lean_ctor_object, ptr %4, i32 0, i32 1
  %6 = getelementptr inbounds [0 x ptr], ptr %5, i64 0, i64 0
  ret ptr %6
}

; Function Attrs: inlinehint nounwind uwtable
define internal zeroext i8 @lean_ptr_tag(ptr noundef %0) #0 {
  %2 = alloca ptr, align 8
  store ptr %0, ptr %2, align 8, !tbaa !4
  %3 = load ptr, ptr %2, align 8, !tbaa !4
  %4 = getelementptr inbounds nuw %struct.lean_object, ptr %3, i32 0, i32 1
  %5 = load i32, ptr %4, align 4
  %6 = lshr i32 %5, 24
  %7 = trunc i32 %6 to i8
  ret i8 %7
}

; Function Attrs: inlinehint nounwind uwtable
define internal i64 @lean_unbox(ptr noundef %0) #0 {
  %2 = alloca ptr, align 8
  store ptr %0, ptr %2, align 8, !tbaa !4
  %3 = load ptr, ptr %2, align 8, !tbaa !4
  %4 = ptrtoint ptr %3 to i64
  %5 = lshr i64 %4, 1
  ret i64 %5
}

; Function Attrs: alwaysinline nounwind uwtable
define internal zeroext i1 @lean_is_scalar(ptr noundef %0) #1 {
  %2 = alloca ptr, align 8
  store ptr %0, ptr %2, align 8, !tbaa !4
  %3 = load ptr, ptr %2, align 8, !tbaa !4
  %4 = ptrtoint ptr %3 to i64
  %5 = and i64 %4, 1
  %6 = icmp eq i64 %5, 1
  ret i1 %6
}

; Function Attrs: inlinehint nounwind uwtable
define internal i64 @lean_uint64_of_nat(ptr noundef %0) #0 {
  %2 = alloca ptr, align 8
  store ptr %0, ptr %2, align 8, !tbaa !4
  %3 = load ptr, ptr %2, align 8, !tbaa !4
  %4 = call zeroext i1 @lean_is_scalar(ptr noundef %3)
  br i1 %4, label %5, label %8

5:                                                ; preds = %1
  %6 = load ptr, ptr %2, align 8, !tbaa !4
  %7 = call i64 @lean_unbox(ptr noundef %6)
  br label %11

8:                                                ; preds = %1
  %9 = load ptr, ptr %2, align 8, !tbaa !4
  %10 = call i64 @lean_uint64_of_big_nat(ptr noundef %9)
  br label %11

11:                                               ; preds = %8, %5
  %12 = phi i64 [ %7, %5 ], [ %10, %8 ]
  ret i64 %12
}

; Function Attrs: inlinehint nounwind uwtable
define internal ptr @lean_ctor_get(ptr noundef %0, i32 noundef %1) #0 {
  %3 = alloca ptr, align 8
  %4 = alloca i32, align 4
  store ptr %0, ptr %3, align 8, !tbaa !4
  store i32 %1, ptr %4, align 4, !tbaa !13
  %5 = load ptr, ptr %3, align 8, !tbaa !4
  %6 = call ptr @lean_ctor_obj_cptr(ptr noundef %5)
  %7 = load i32, ptr %4, align 4, !tbaa !13
  %8 = zext i32 %7 to i64
  %9 = getelementptr inbounds nuw ptr, ptr %6, i64 %8
  %10 = load ptr, ptr %9, align 8, !tbaa !4
  ret ptr %10
}

; Function Attrs: inlinehint nounwind uwtable
define internal i32 @lean_obj_tag(ptr noundef %0) #0 {
  %2 = alloca i32, align 4
  %3 = alloca ptr, align 8
  store ptr %0, ptr %3, align 8, !tbaa !4
  %4 = load ptr, ptr %3, align 8, !tbaa !4
  %5 = call zeroext i1 @lean_is_scalar(ptr noundef %4)
  br i1 %5, label %6, label %10

6:                                                ; preds = %1
  %7 = load ptr, ptr %3, align 8, !tbaa !4
  %8 = call i64 @lean_unbox(ptr noundef %7)
  %9 = trunc i64 %8 to i32
  store i32 %9, ptr %2, align 4
  br label %14

10:                                               ; preds = %1
  %11 = load ptr, ptr %3, align 8, !tbaa !4
  %12 = call zeroext i8 @lean_ptr_tag(ptr noundef %11)
  %13 = zext i8 %12 to i32
  store i32 %13, ptr %2, align 4
  br label %14

14:                                               ; preds = %10, %6
  %15 = load i32, ptr %2, align 4
  ret i32 %15
}

; Function Attrs: nounwind uwtable
define i64 @l_Lean_Meta_LazyDiscrTree_Key_hash(ptr noundef %0) #2 {
  %2 = alloca i64, align 8
  %3 = alloca ptr, align 8
  %4 = alloca ptr, align 8
  %5 = alloca ptr, align 8
  %6 = alloca i64, align 8
  %7 = alloca i64, align 8
  %8 = alloca i64, align 8
  %9 = alloca i64, align 8
  %10 = alloca i64, align 8
  %11 = alloca ptr, align 8
  %12 = alloca ptr, align 8
  %13 = alloca i64, align 8
  %14 = alloca i64, align 8
  %15 = alloca i64, align 8
  %16 = alloca i64, align 8
  %17 = alloca i64, align 8
  %18 = alloca ptr, align 8
  %19 = alloca i64, align 8
  %20 = alloca i64, align 8
  %21 = alloca i64, align 8
  %22 = alloca i64, align 8
  %23 = alloca i64, align 8
  %24 = alloca i64, align 8
  %25 = alloca ptr, align 8
  %26 = alloca ptr, align 8
  %27 = alloca ptr, align 8
  %28 = alloca i64, align 8
  %29 = alloca i64, align 8
  %30 = alloca i64, align 8
  %31 = alloca i64, align 8
  %32 = alloca i64, align 8
  store ptr %0, ptr %3, align 8, !tbaa !4
  br label %33

33:                                               ; preds = %1
  %34 = load ptr, ptr %3, align 8, !tbaa !4
  %35 = call i32 @lean_obj_tag(ptr noundef %34)
  switch i32 %35, label %83 [
    i32 0, label %36
    i32 1, label %52
    i32 2, label %68
    i32 3, label %77
    i32 4, label %79
    i32 5, label %81
  ]

36:                                               ; preds = %33
  call void @llvm.lifetime.start.p0(i64 8, ptr %4) #8
  call void @llvm.lifetime.start.p0(i64 8, ptr %5) #8
  call void @llvm.lifetime.start.p0(i64 8, ptr %6) #8
  call void @llvm.lifetime.start.p0(i64 8, ptr %7) #8
  call void @llvm.lifetime.start.p0(i64 8, ptr %8) #8
  call void @llvm.lifetime.start.p0(i64 8, ptr %9) #8
  call void @llvm.lifetime.start.p0(i64 8, ptr %10) #8
  %37 = load ptr, ptr %3, align 8, !tbaa !4
  %38 = call ptr @lean_ctor_get(ptr noundef %37, i32 noundef 0)
  store ptr %38, ptr %4, align 8, !tbaa !4
  %39 = load ptr, ptr %3, align 8, !tbaa !4
  %40 = call ptr @lean_ctor_get(ptr noundef %39, i32 noundef 1)
  store ptr %40, ptr %5, align 8, !tbaa !4
  store i64 5237, ptr %6, align 8, !tbaa !8
  %41 = load ptr, ptr %4, align 8, !tbaa !4
  %42 = call i64 @l_Lean_Name_hash___override(ptr noundef %41)
  store i64 %42, ptr %7, align 8, !tbaa !8
  %43 = load ptr, ptr %5, align 8, !tbaa !4
  %44 = call i64 @lean_uint64_of_nat(ptr noundef %43)
  store i64 %44, ptr %8, align 8, !tbaa !8
  %45 = load i64, ptr %7, align 8, !tbaa !8
  %46 = load i64, ptr %8, align 8, !tbaa !8
  %47 = call i64 @lean_uint64_mix_hash(i64 noundef %45, i64 noundef %46)
  store i64 %47, ptr %9, align 8, !tbaa !8
  %48 = load i64, ptr %6, align 8, !tbaa !8
  %49 = load i64, ptr %9, align 8, !tbaa !8
  %50 = call i64 @lean_uint64_mix_hash(i64 noundef %48, i64 noundef %49)
  store i64 %50, ptr %10, align 8, !tbaa !8
  %51 = load i64, ptr %10, align 8, !tbaa !8
  store i64 %51, ptr %2, align 8
  call void @llvm.lifetime.end.p0(i64 8, ptr %10) #8
  call void @llvm.lifetime.end.p0(i64 8, ptr %9) #8
  call void @llvm.lifetime.end.p0(i64 8, ptr %8) #8
  call void @llvm.lifetime.end.p0(i64 8, ptr %7) #8
  call void @llvm.lifetime.end.p0(i64 8, ptr %6) #8
  call void @llvm.lifetime.end.p0(i64 8, ptr %5) #8
  call void @llvm.lifetime.end.p0(i64 8, ptr %4) #8
  br label %103

52:                                               ; preds = %33
  call void @llvm.lifetime.start.p0(i64 8, ptr %11) #8
  call void @llvm.lifetime.start.p0(i64 8, ptr %12) #8
  call void @llvm.lifetime.start.p0(i64 8, ptr %13) #8
  call void @llvm.lifetime.start.p0(i64 8, ptr %14) #8
  call void @llvm.lifetime.start.p0(i64 8, ptr %15) #8
  call void @llvm.lifetime.start.p0(i64 8, ptr %16) #8
  call void @llvm.lifetime.start.p0(i64 8, ptr %17) #8
  %53 = load ptr, ptr %3, align 8, !tbaa !4
  %54 = call ptr @lean_ctor_get(ptr noundef %53, i32 noundef 0)
  store ptr %54, ptr %11, align 8, !tbaa !4
  %55 = load ptr, ptr %3, align 8, !tbaa !4
  %56 = call ptr @lean_ctor_get(ptr noundef %55, i32 noundef 1)
  store ptr %56, ptr %12, align 8, !tbaa !4
  store i64 3541, ptr %13, align 8, !tbaa !8
  %57 = load ptr, ptr %11, align 8, !tbaa !4
  %58 = call i64 @l___private_Lean_Expr_0__Lean_hashFVarId____x40_Lean_Expr___hyg_1730_(ptr noundef %57)
  store i64 %58, ptr %14, align 8, !tbaa !8
  %59 = load ptr, ptr %12, align 8, !tbaa !4
  %60 = call i64 @lean_uint64_of_nat(ptr noundef %59)
  store i64 %60, ptr %15, align 8, !tbaa !8
  %61 = load i64, ptr %14, align 8, !tbaa !8
  %62 = load i64, ptr %15, align 8, !tbaa !8
  %63 = call i64 @lean_uint64_mix_hash(i64 noundef %61, i64 noundef %62)
  store i64 %63, ptr %16, align 8, !tbaa !8
  %64 = load i64, ptr %13, align 8, !tbaa !8
  %65 = load i64, ptr %16, align 8, !tbaa !8
  %66 = call i64 @lean_uint64_mix_hash(i64 noundef %64, i64 noundef %65)
  store i64 %66, ptr %17, align 8, !tbaa !8
  %67 = load i64, ptr %17, align 8, !tbaa !8
  store i64 %67, ptr %2, align 8
  call void @llvm.lifetime.end.p0(i64 8, ptr %17) #8
  call void @llvm.lifetime.end.p0(i64 8, ptr %16) #8
  call void @llvm.lifetime.end.p0(i64 8, ptr %15) #8
  call void @llvm.lifetime.end.p0(i64 8, ptr %14) #8
  call void @llvm.lifetime.end.p0(i64 8, ptr %13) #8
  call void @llvm.lifetime.end.p0(i64 8, ptr %12) #8
  call void @llvm.lifetime.end.p0(i64 8, ptr %11) #8
  br label %103

68:                                               ; preds = %33
  call void @llvm.lifetime.start.p0(i64 8, ptr %18) #8
  call void @llvm.lifetime.start.p0(i64 8, ptr %19) #8
  call void @llvm.lifetime.start.p0(i64 8, ptr %20) #8
  call void @llvm.lifetime.start.p0(i64 8, ptr %21) #8
  %69 = load ptr, ptr %3, align 8, !tbaa !4
  %70 = call ptr @lean_ctor_get(ptr noundef %69, i32 noundef 0)
  store ptr %70, ptr %18, align 8, !tbaa !4
  store i64 1879, ptr %19, align 8, !tbaa !8
  %71 = load ptr, ptr %18, align 8, !tbaa !4
  %72 = call i64 @l_Lean_Literal_hash(ptr noundef %71)
  store i64 %72, ptr %20, align 8, !tbaa !8
  %73 = load i64, ptr %19, align 8, !tbaa !8
  %74 = load i64, ptr %20, align 8, !tbaa !8
  %75 = call i64 @lean_uint64_mix_hash(i64 noundef %73, i64 noundef %74)
  store i64 %75, ptr %21, align 8, !tbaa !8
  %76 = load i64, ptr %21, align 8, !tbaa !8
  store i64 %76, ptr %2, align 8
  call void @llvm.lifetime.end.p0(i64 8, ptr %21) #8
  call void @llvm.lifetime.end.p0(i64 8, ptr %20) #8
  call void @llvm.lifetime.end.p0(i64 8, ptr %19) #8
  call void @llvm.lifetime.end.p0(i64 8, ptr %18) #8
  br label %103

77:                                               ; preds = %33
  call void @llvm.lifetime.start.p0(i64 8, ptr %22) #8
  store i64 7883, ptr %22, align 8, !tbaa !8
  %78 = load i64, ptr %22, align 8, !tbaa !8
  store i64 %78, ptr %2, align 8
  call void @llvm.lifetime.end.p0(i64 8, ptr %22) #8
  br label %103

79:                                               ; preds = %33
  call void @llvm.lifetime.start.p0(i64 8, ptr %23) #8
  store i64 2411, ptr %23, align 8, !tbaa !8
  %80 = load i64, ptr %23, align 8, !tbaa !8
  store i64 %80, ptr %2, align 8
  call void @llvm.lifetime.end.p0(i64 8, ptr %23) #8
  br label %103

81:                                               ; preds = %33
  call void @llvm.lifetime.start.p0(i64 8, ptr %24) #8
  store i64 17, ptr %24, align 8, !tbaa !8
  %82 = load i64, ptr %24, align 8, !tbaa !8
  store i64 %82, ptr %2, align 8
  call void @llvm.lifetime.end.p0(i64 8, ptr %24) #8
  br label %103

83:                                               ; preds = %33
  call void @llvm.lifetime.start.p0(i64 8, ptr %25) #8
  call void @llvm.lifetime.start.p0(i64 8, ptr %26) #8
  call void @llvm.lifetime.start.p0(i64 8, ptr %27) #8
  call void @llvm.lifetime.start.p0(i64 8, ptr %28) #8
  call void @llvm.lifetime.start.p0(i64 8, ptr %29) #8
  call void @llvm.lifetime.start.p0(i64 8, ptr %30) #8
  call void @llvm.lifetime.start.p0(i64 8, ptr %31) #8
  call void @llvm.lifetime.start.p0(i64 8, ptr %32) #8
  %84 = load ptr, ptr %3, align 8, !tbaa !4
  %85 = call ptr @lean_ctor_get(ptr noundef %84, i32 noundef 0)
  store ptr %85, ptr %25, align 8, !tbaa !4
  %86 = load ptr, ptr %3, align 8, !tbaa !4
  %87 = call ptr @lean_ctor_get(ptr noundef %86, i32 noundef 1)
  store ptr %87, ptr %26, align 8, !tbaa !4
  %88 = load ptr, ptr %3, align 8, !tbaa !4
  %89 = call ptr @lean_ctor_get(ptr noundef %88, i32 noundef 2)
  store ptr %89, ptr %27, align 8, !tbaa !4
  %90 = load ptr, ptr %27, align 8, !tbaa !4
  %91 = call i64 @lean_uint64_of_nat(ptr noundef %90)
  store i64 %91, ptr %28, align 8, !tbaa !8
  %92 = load ptr, ptr %25, align 8, !tbaa !4
  %93 = call i64 @l_Lean_Name_hash___override(ptr noundef %92)
  store i64 %93, ptr %29, align 8, !tbaa !8
  %94 = load ptr, ptr %26, align 8, !tbaa !4
  %95 = call i64 @lean_uint64_of_nat(ptr noundef %94)
  store i64 %95, ptr %30, align 8, !tbaa !8
  %96 = load i64, ptr %29, align 8, !tbaa !8
  %97 = load i64, ptr %30, align 8, !tbaa !8
  %98 = call i64 @lean_uint64_mix_hash(i64 noundef %96, i64 noundef %97)
  store i64 %98, ptr %31, align 8, !tbaa !8
  %99 = load i64, ptr %28, align 8, !tbaa !8
  %100 = load i64, ptr %31, align 8, !tbaa !8
  %101 = call i64 @lean_uint64_mix_hash(i64 noundef %99, i64 noundef %100)
  store i64 %101, ptr %32, align 8, !tbaa !8
  %102 = load i64, ptr %32, align 8, !tbaa !8
  store i64 %102, ptr %2, align 8
  call void @llvm.lifetime.end.p0(i64 8, ptr %32) #8
  call void @llvm.lifetime.end.p0(i64 8, ptr %31) #8
  call void @llvm.lifetime.end.p0(i64 8, ptr %30) #8
  call void @llvm.lifetime.end.p0(i64 8, ptr %29) #8
  call void @llvm.lifetime.end.p0(i64 8, ptr %28) #8
  call void @llvm.lifetime.end.p0(i64 8, ptr %27) #8
  call void @llvm.lifetime.end.p0(i64 8, ptr %26) #8
  call void @llvm.lifetime.end.p0(i64 8, ptr %25) #8
  br label %103

103:                                              ; preds = %83, %81, %79, %77, %68, %52, %36
  %104 = load i64, ptr %2, align 8
  ret i64 %104
}